target datalayout = "e-m:e-p270:32:32-p271:32:32-p272:64:64-i64:64-i128:128-f80:128-n8:16:32:64-S128"
target triple = "x86_64-pc-linux-gnu"

%struct.H264Context = type { ptr, ptr, %struct.VideoDSPContext, %struct.H264DSPContext, %struct.H264ChromaContext, %struct.H264QpelContext, %struct.H274FilmGrainDatabase, [36 x %struct.H264Picture], ptr, %struct.H264Picture, %struct.H264Picture, ptr, i32, i32, %struct.H2645Packet, i32, i32, i32, i32, i32, i32, i32, i32, i32, i32, i32, i32, i32, i32, i32, i32, i32, ptr, %struct.H264PredContext, ptr, [96 x i32], ptr, ptr, i32, ptr, i32, i32, i32, ptr, ptr, ptr, [2 x ptr], ptr, [16 x i8], [16 x i8], [64 x i8], [64 x i8], [16 x i8], [64 x i8], [64 x i8], [16 x i8], [64 x i8], [64 x i8], [16 x i8], [64 x i8], [64 x i8], i32, i32, i32, i32, i32, i32, i32, i32, i32, i32, i32, i32, %struct.H264ParamSets, ptr, %struct.H264POCContext, [2 x %struct.H264Ref], [32 x ptr], [32 x ptr], [18 x ptr], [16 x i32], ptr, i32, i32, [67 x %struct.MMCO], i32, i32, i32, i32, i32, i32, i32, i32, i32, i32, i32, i32, i32, i32, i32, [32 x i16], i32, i32, i32, %struct.ERContext, ptr, %struct.H264SEIContext, ptr, ptr, ptr, ptr, ptr, [32 x [2 x [64 x i32]]], i32, i32, i32 }
%struct.VideoDSPContext = type { ptr, ptr }
%struct.H264DSPContext = type { [4 x ptr], [4 x ptr], ptr, ptr, ptr, ptr, ptr, ptr, ptr, ptr, ptr, ptr, ptr, ptr, ptr, ptr, ptr, ptr, ptr, ptr, ptr, ptr, ptr, ptr, ptr, ptr, ptr, ptr }
%struct.H264ChromaContext = type { [4 x ptr], [4 x ptr] }
%struct.H264QpelContext = type { [4 x [16 x ptr]], [4 x [16 x ptr]] }
%struct.H274FilmGrainDatabase = type { [13 x [13 x [64 x [64 x i8]]]], [13 x i16], [64 x [64 x i16]] }
%struct.H264Picture = type { ptr, %struct.ThreadFrame, ptr, ptr, ptr, [2 x ptr], [2 x ptr], ptr, ptr, ptr, [2 x ptr], [2 x i32], i32, i32, i32, i32, i32, [2 x [2 x [32 x i32]]], [2 x [2 x i32]], i32, i32, i32, i32, i32, i32, i32, ptr, i32, i32, i32, ptr, i32 }
%struct.ThreadFrame = type { ptr, [2 x ptr], ptr }
%struct.H2645Packet = type { ptr, %struct.H2645RBSP, i32, i32, i32 }
%struct.H2645RBSP = type { ptr, ptr, i32, i32 }
%struct.H264PredContext = type { [15 x ptr], [12 x ptr], [11 x ptr], [9 x ptr], [2 x ptr], [2 x ptr], [2 x ptr], [3 x ptr], [3 x ptr] }
%struct.H264ParamSets = type { [32 x ptr], [256 x ptr], ptr, ptr, [2 x i32] }
%struct.H264POCContext = type { i32, i32, i32, [2 x i32], i32, i32, i32, i32, i32, i32 }
%struct.H264Ref = type { [3 x ptr], [3 x i32], i32, i32, i32, ptr }
%struct.MMCO = type { i32, i32, i32 }
%struct.ERContext = type { ptr, ptr, i32, ptr, i32, i32, i32, i64, i64, i32, i32, ptr, ptr, [3 x ptr], ptr, ptr, [2 x [4 x [2 x i32]]], %struct.ERPicture, %struct.ERPicture, %struct.ERPicture, [2 x ptr], [2 x ptr], i16, i16, i32, i32, ptr, ptr }
%struct.ERPicture = type { ptr, ptr, ptr, [2 x ptr], [2 x ptr], ptr, i32 }
%struct.H264SEIContext = type { %struct.H2645SEI, %struct.H264SEIPictureTiming, %struct.H264SEIRecoveryPoint, %struct.H264SEIBufferingPeriod, %struct.H264SEIGreenMetaData }
%struct.H2645SEI = type { %struct.H2645SEIA53Caption, %struct.H2645SEIAFD, %struct.HEVCSEIDynamicHDRPlus, %struct.HEVCSEIDynamicHDRVivid, %struct.HEVCSEILCEVC, %struct.H2645SEIUnregistered, %struct.H2645SEIFramePacking, %struct.H2645SEIDisplayOrientation, %struct.H2645SEIAlternativeTransfer, %struct.H2645SEIAmbientViewingEnvironment, %struct.H2645SEIMasteringDisplay, %struct.H2645SEIContentLight, %struct.AVFilmGrainAFGS1Params, ptr }
%struct.H2645SEIA53Caption = type { ptr }
%struct.H2645SEIAFD = type { i32, i8 }
%struct.HEVCSEIDynamicHDRPlus = type { ptr }
%struct.HEVCSEIDynamicHDRVivid = type { ptr }
%struct.HEVCSEILCEVC = type { ptr }
%struct.H2645SEIUnregistered = type { ptr, i32, i32 }
%struct.H2645SEIFramePacking = type { i32, i32, i32, i32, i32, i32, i32, i32 }
%struct.H2645SEIDisplayOrientation = type { i32, i32, i32, i32 }
%struct.H2645SEIAlternativeTransfer = type { i32, i32 }
%struct.H2645SEIAmbientViewingEnvironment = type { i32, i32, i16, i16 }
%struct.H2645SEIMasteringDisplay = type { i32, [3 x [2 x i16]], [2 x i16], i32, i32 }
%struct.H2645SEIContentLight = type { i32, i16, i16 }
%struct.AVFilmGrainAFGS1Params = type { i32, [8 x ptr] }
%struct.H264SEIPictureTiming = type { [40 x i8], i32, i32, i32, i32, i32, i32, [3 x %struct.H264SEITimeCode], i32 }
%struct.H264SEITimeCode = type { i32, i32, i32, i32, i32, i32 }
%struct.H264SEIRecoveryPoint = type { i32 }
%struct.H264SEIBufferingPeriod = type { i32, [32 x i32] }
%struct.H264SEIGreenMetaData = type { i8, i8, i16, i16, i8, i8, i8, i8, i8, i16 }
%struct.H264SliceContext = type { ptr, %struct.GetBitContext, ptr, i32, i32, i32, i32, i32, [2 x i32], i32, i32, i32, i32, i32, %struct.H264PredWeightTable, i32, i32, i32, i32, [40 x i8], ptr, i32, i32, i32, [2 x i32], i32, i32, i32, [2 x i32], ptr, i32, i32, i32, i32, i32, i64, i64, i64, i64, i32, i32, i32, i32, i32, i32, i32, i32, i32, i32, i32, i32, i32, i32, i32, i32, i32, i32, i32, i32, [32 x i32], [2 x [32 x i32]], [2 x [48 x i32]], [2 x [2 x [48 x i32]]], [2 x i32], i32, [2 x [48 x %struct.H264Ref]], [2 x [32 x %struct.anon]], [2 x i32], i32, ptr, ptr, ptr, [2 x ptr], i32, i32, [2 x i32], [120 x i8], [8 x i8], [2 x [40 x [2 x i16]]], [2 x [40 x i8]], [2 x [40 x [2 x i8]]], [40 x i8], [4 x i16], [1536 x i16], [3 x [32 x i16]], [512 x i16], [2 x ptr], %struct.CABACContext, [1024 x i8], i32, [67 x %struct.MMCO], i32, i32, i32, i32, i32, i32, [2 x i32], i32, i32 }
%struct.GetBitContext = type { ptr, ptr, i32, i32, i32 }
%struct.H264PredWeightTable = type { i32, i32, i32, i32, [2 x i32], [2 x i32], [48 x [2 x [2 x i32]]], [48 x [2 x [2 x [2 x i32]]]], [48 x [48 x [2 x i32]]] }
%struct.anon = type { i8, i32 }
%struct.CABACContext = type { i32, i32, ptr, ptr, ptr }

@scan8 = internal constant [51 x i8] c"\0C\0D\14\15\0E\0F\16\17\1C\1D$%\1E\1F&'45<=67>?DELMFGNO\\]de^_fglmtunovw\00(P", align 16

; Function Attrs: nounwind uwtable
define void @ff_h264_slice_context_init(ptr noundef %0, ptr noundef %1) #0 {
  %3 = alloca ptr, align 8
  %4 = alloca ptr, align 8
  store ptr %0, ptr %3, align 8, !tbaa !29
  store ptr %1, ptr %4, align 8, !tbaa !82
  %5 = load ptr, ptr %4, align 8, !tbaa !82
  %6 = getelementptr inbounds nuw %struct.H264SliceContext, ptr %5, i32 0, i32 79
  %7 = getelementptr inbounds [2 x [40 x i8]], ptr %6, i64 0, i64 1
  %8 = load i8, ptr getelementptr inbounds ([51 x i8], ptr @scan8, i64 0, i64 13), align 1, !tbaa !156
  %9 = zext i8 %8 to i32
  %10 = add nsw i32 %9, 1
  %11 = sext i32 %10 to i64
  %12 = getelementptr inbounds [40 x i8], ptr %7, i64 0, i64 %11
  store i8 -2, ptr %12, align 1, !tbaa !156
  %13 = load ptr, ptr %4, align 8, !tbaa !82
  %14 = getelementptr inbounds nuw %struct.H264SliceContext, ptr %13, i32 0, i32 79
  %15 = getelementptr inbounds [2 x [40 x i8]], ptr %14, i64 0, i64 1
  %16 = load i8, ptr getelementptr inbounds ([51 x i8], ptr @scan8, i64 0, i64 7), align 1, !tbaa !156
  %17 = zext i8 %16 to i32
  %18 = add nsw i32 %17, 1
  %19 = sext i32 %18 to i64
  %20 = getelementptr inbounds [40 x i8], ptr %15, i64 0, i64 %19
  store i8 -2, ptr %20, align 1, !tbaa !156
  %21 = load ptr, ptr %4, align 8, !tbaa !82
  %22 = getelementptr inbounds nuw %struct.H264SliceContext, ptr %21, i32 0, i32 79
  %23 = getelementptr inbounds [2 x [40 x i8]], ptr %22, i64 0, i64 1
  %24 = load i8, ptr getelementptr inbounds ([51 x i8], ptr @scan8, i64 0, i64 5), align 1, !tbaa !156
  %25 = zext i8 %24 to i32
  %26 = add nsw i32 %25, 1
  %27 = sext i32 %26 to i64
  %28 = getelementptr inbounds [40 x i8], ptr %23, i64 0, i64 %27
  store i8 -2, ptr %28, align 1, !tbaa !156
  %29 = load ptr, ptr %4, align 8, !tbaa !82
  %30 = getelementptr inbounds nuw %struct.H264SliceContext, ptr %29, i32 0, i32 79
  %31 = getelementptr inbounds [2 x [40 x i8]], ptr %30, i64 0, i64 0
  %32 = load i8, ptr getelementptr inbounds ([51 x i8], ptr @scan8, i64 0, i64 13), align 1, !tbaa !156
  %33 = zext i8 %32 to i32
  %34 = add nsw i32 %33, 1
  %35 = sext i32 %34 to i64
  %36 = getelementptr inbounds [40 x i8], ptr %31, i64 0, i64 %35
  store i8 -2, ptr %36, align 1, !tbaa !156
  %37 = load ptr, ptr %4, align 8, !tbaa !82
  %38 = getelementptr inbounds nuw %struct.H264SliceContext, ptr %37, i32 0, i32 79
  %39 = getelementptr inbounds [2 x [40 x i8]], ptr %38, i64 0, i64 0
  %40 = load i8, ptr getelementptr inbounds ([51 x i8], ptr @scan8, i64 0, i64 7), align 1, !tbaa !156
  %41 = zext i8 %40 to i32
  %42 = add nsw i32 %41, 1
  %43 = sext i32 %42 to i64
  %44 = getelementptr inbounds [40 x i8], ptr %39, i64 0, i64 %43
  store i8 -2, ptr %44, align 1, !tbaa !156
  %45 = load ptr, ptr %4, align 8, !tbaa !82
  %46 = getelementptr inbounds nuw %struct.H264SliceContext, ptr %45, i32 0, i32 79
  %47 = getelementptr inbounds [2 x [40 x i8]], ptr %46, i64 0, i64 0
  %48 = load i8, ptr getelementptr inbounds ([51 x i8], ptr @scan8, i64 0, i64 5), align 1, !tbaa !156
  %49 = zext i8 %48 to i32
  %50 = add nsw i32 %49, 1
  %51 = sext i32 %50 to i64
  %52 = getelementptr inbounds [40 x i8], ptr %47, i64 0, i64 %51
  store i8 -2, ptr %52, align 1, !tbaa !156
  %53 = load ptr, ptr %3, align 8, !tbaa !29
  %54 = getelementptr inbounds nuw %struct.H264Context, ptr %53, i32 0, i32 104
  %55 = load ptr, ptr %4, align 8, !tbaa !82
  %56 = getelementptr inbounds nuw %struct.H264SliceContext, ptr %55, i32 0, i32 2
  store ptr %54, ptr %56, align 8, !tbaa !159
  ret void
}