; Function Attrs: mustprogress nofree norecurse nosync nounwind willreturn memory(argmem: write) uwtable
define void @ff_h264_slice_context_init(ptr noundef %0, ptr noundef writeonly captures(none) initializes((40, 48), (29088, 29089), (29096, 29097), (29104, 29105), (29128, 29129), (29136, 29137), (29144, 29145)) %1) local_unnamed_addr #5 {
  %3 = getelementptr inbounds nuw i8, ptr %1, i64 29144
  store i8 -2, ptr %3, align 1, !tbaa !145
  %4 = getelementptr inbounds nuw i8, ptr %1, i64 29136
  store i8 -2, ptr %4, align 1, !tbaa !145
  %5 = getelementptr inbounds nuw i8, ptr %1, i64 29128
  store i8 -2, ptr %5, align 1, !tbaa !145
  %6 = getelementptr inbounds nuw i8, ptr %1, i64 29104
  store i8 -2, ptr %6, align 1, !tbaa !145
  %7 = getelementptr inbounds nuw i8, ptr %1, i64 29096
  store i8 -2, ptr %7, align 1, !tbaa !145
  %8 = getelementptr inbounds nuw i8, ptr %1, i64 29088
  store i8 -2, ptr %8, align 1, !tbaa !145
  %9 = getelementptr inbounds nuw i8, ptr %0, i64 736648
  %10 = getelementptr inbounds nuw i8, ptr %1, i64 40
  store ptr %9, ptr %10, align 8, !tbaa !146
  ret void
}